target datalayout = "e-m:e-p270:32:32-p271:32:32-p272:64:64-i64:64-i128:128-f80:128-n8:16:32:64-S128"
target triple = "x86_64-pc-linux-gnu"

@PyExc_TypeError = external global ptr, align 8
@.str.4 = private unnamed_addr constant [28 x i8] c"macro_result == func_result\00", align 1
@.str.5 = private unnamed_addr constant [46 x i8] c"../cpython/Modules/_testlimitedcapi/version.c\00", align 1
@.str.6 = private unnamed_addr constant [43 x i8] c"pack_version expected 2 arguments, got %zd\00", align 1
@__PRETTY_FUNCTION__._testlimitedcapi_pack_version_impl = private unnamed_addr constant [67 x i8] c"PyObject *_testlimitedcapi_pack_version_impl(PyObject *, int, int)\00", align 1

; Function Attrs: nounwind uwtable
define internal ptr @_testlimitedcapi_pack_version_impl(ptr noundef %0, i32 noundef %1, i32 noundef %2) #0 {
  %4 = alloca ptr, align 8
  %5 = alloca i32, align 4
  %6 = alloca i32, align 4
  %7 = alloca i32, align 4
  %8 = alloca i32, align 4
  store ptr %0, ptr %4, align 8, !tbaa !3
  store i32 %1, ptr %5, align 4, !tbaa !12
  store i32 %2, ptr %6, align 4, !tbaa !12
  call void @llvm.lifetime.start.p0(i64 4, ptr %7) #4
  %9 = load i32, ptr %5, align 4, !tbaa !12
  %10 = load i32, ptr %6, align 4, !tbaa !12
  %11 = call i32 @Py_PACK_FULL_VERSION(i32 noundef %9, i32 noundef %10, i32 noundef 0, i32 noundef 0, i32 noundef 0)
  store i32 %11, ptr %7, align 4, !tbaa !12
  call void @llvm.lifetime.start.p0(i64 4, ptr %8) #4
  %12 = load i32, ptr %5, align 4, !tbaa !12
  %13 = load i32, ptr %6, align 4, !tbaa !12
  %14 = call i32 @Py_PACK_VERSION(i32 noundef %12, i32 noundef %13)
  store i32 %14, ptr %8, align 4, !tbaa !12
  %15 = load i32, ptr %7, align 4, !tbaa !12
  %16 = load i32, ptr %8, align 4, !tbaa !12
  %17 = icmp eq i32 %15, %16
  br i1 %17, label %18, label %19

18:                                               ; preds = %3
  br label %21

19:                                               ; preds = %3
  call void @__assert_fail(ptr noundef @.str.4, ptr noundef @.str.5, i32 noundef 60, ptr noundef @__PRETTY_FUNCTION__._testlimitedcapi_pack_version_impl) #5
  unreachable

20:                                               ; No predecessors!
  br label %21

21:                                               ; preds = %20, %18
  %22 = load i32, ptr %8, align 4, !tbaa !12
  %23 = zext i32 %22 to i64
  %24 = call ptr @PyLong_FromUnsignedLong(i64 noundef %23)
  call void @llvm.lifetime.end.p0(i64 4, ptr %8) #4
  call void @llvm.lifetime.end.p0(i64 4, ptr %7) #4
  ret ptr %24
}

; Function Attrs: nounwind uwtable
define internal ptr @_testlimitedcapi_pack_version(ptr noundef %0, ptr noundef %1, i64 noundef %2) #0 {
  %4 = alloca ptr, align 8
  %5 = alloca ptr, align 8
  %6 = alloca i64, align 8
  %7 = alloca ptr, align 8
  %8 = alloca i32, align 4
  %9 = alloca i32, align 4
  store ptr %0, ptr %4, align 8, !tbaa !3
  store ptr %1, ptr %5, align 8, !tbaa !8
  store i64 %2, ptr %6, align 8, !tbaa !10
  call void @llvm.lifetime.start.p0(i64 8, ptr %7) #4
  store ptr null, ptr %7, align 8, !tbaa !3
  call void @llvm.lifetime.start.p0(i64 4, ptr %8) #4
  call void @llvm.lifetime.start.p0(i64 4, ptr %9) #4
  %10 = load i64, ptr %6, align 8, !tbaa !10
  %11 = icmp ne i64 %10, 2
  br i1 %11, label %12, label %16

12:                                               ; preds = %3
  %13 = load ptr, ptr @PyExc_TypeError, align 8, !tbaa !3
  %14 = load i64, ptr %6, align 8, !tbaa !10
  %15 = call ptr (ptr, ptr, ...) @PyErr_Format(ptr noundef %13, ptr noundef @.str.6, i64 noundef %14)
  br label %43

16:                                               ; preds = %3
  %17 = load ptr, ptr %5, align 8, !tbaa !8
  %18 = getelementptr ptr, ptr %17, i64 0
  %19 = load ptr, ptr %18, align 8, !tbaa !3
  %20 = call i32 @PyLong_AsInt(ptr noundef %19)
  store i32 %20, ptr %8, align 4, !tbaa !12
  %21 = load i32, ptr %8, align 4, !tbaa !12
  %22 = icmp eq i32 %21, -1
  br i1 %22, label %23, label %27

23:                                               ; preds = %16
  %24 = call ptr @PyErr_Occurred()
  %25 = icmp ne ptr %24, null
  br i1 %25, label %26, label %27

26:                                               ; preds = %23
  br label %43

27:                                               ; preds = %23, %16
  %28 = load ptr, ptr %5, align 8, !tbaa !8
  %29 = getelementptr ptr, ptr %28, i64 1
  %30 = load ptr, ptr %29, align 8, !tbaa !3
  %31 = call i32 @PyLong_AsInt(ptr noundef %30)
  store i32 %31, ptr %9, align 4, !tbaa !12
  %32 = load i32, ptr %9, align 4, !tbaa !12
  %33 = icmp eq i32 %32, -1
  br i1 %33, label %34, label %38

34:                                               ; preds = %27
  %35 = call ptr @PyErr_Occurred()
  %36 = icmp ne ptr %35, null
  br i1 %36, label %37, label %38

37:                                               ; preds = %34
  br label %43

38:                                               ; preds = %34, %27
  %39 = load ptr, ptr %4, align 8, !tbaa !3
  %40 = load i32, ptr %8, align 4, !tbaa !12
  %41 = load i32, ptr %9, align 4, !tbaa !12
  %42 = call ptr @_testlimitedcapi_pack_version_impl(ptr noundef %39, i32 noundef %40, i32 noundef %41)
  store ptr %42, ptr %7, align 8, !tbaa !3
  br label %43

43:                                               ; preds = %38, %37, %26, %12
  %44 = load ptr, ptr %7, align 8, !tbaa !3
  call void @llvm.lifetime.end.p0(i64 4, ptr %9) #4
  call void @llvm.lifetime.end.p0(i64 4, ptr %8) #4
  call void @llvm.lifetime.end.p0(i64 8, ptr %7) #4
  ret ptr %44
}