; Function Attrs: nounwind uwtable
define internal ptr @_testlimitedcapi_pack_version(ptr readnone captures(none) %0, ptr noundef readonly captures(none) %1, i64 noundef %2) #0 {
  %.not = icmp eq i64 %2, 2
  br i1 %.not, label %7, label %4

4:                                                ; preds = %3
  %5 = load ptr, ptr @PyExc_TypeError, align 8, !tbaa !3
  %6 = tail call ptr (ptr, ptr, ...) @PyErr_Format(ptr noundef %5, ptr noundef nonnull @.str.6, i64 noundef %2) #3
  br label %32

7:                                                ; preds = %3
  %8 = load ptr, ptr %1, align 8, !tbaa !3
  %9 = tail call i32 @PyLong_AsInt(ptr noundef %8) #3
  %10 = icmp eq i32 %9, -1
  br i1 %10, label %11, label %13

11:                                               ; preds = %7
  %12 = tail call ptr @PyErr_Occurred() #3
  %.not12 = icmp eq ptr %12, null
  br i1 %.not12, label %13, label %32

13:                                               ; preds = %11, %7
  %14 = getelementptr i8, ptr %1, i64 8
  %15 = load ptr, ptr %14, align 8, !tbaa !3
  %16 = tail call i32 @PyLong_AsInt(ptr noundef %15) #3
  %17 = icmp eq i32 %16, -1
  br i1 %17, label %24, label %.split

.split:                                           ; preds = %13
  %18 = tail call i32 @Py_PACK_FULL_VERSION(i32 noundef %9, i32 noundef %16, i32 noundef 0, i32 noundef 0, i32 noundef 0) #3
  %19 = tail call i32 @Py_PACK_VERSION(i32 noundef %9, i32 noundef %16) #3
  %20 = icmp eq i32 %18, %19
  br i1 %20, label %_testlimitedcapi_pack_version_impl.exit, label %21

21:                                               ; preds = %.split
  tail call void @__assert_fail(ptr noundef nonnull @.str.4, ptr noundef nonnull @.str.5, i32 noundef 60, ptr noundef nonnull @__PRETTY_FUNCTION__._testlimitedcapi_pack_version_impl) #4
  unreachable

_testlimitedcapi_pack_version_impl.exit:          ; preds = %.split
  %22 = zext i32 %18 to i64
  %23 = tail call ptr @PyLong_FromUnsignedLong(i64 noundef %22) #3
  br label %32

24:                                               ; preds = %13
  %25 = tail call ptr @PyErr_Occurred() #3
  %.not13 = icmp eq ptr %25, null
  br i1 %.not13, label %.split9, label %32

.split9:                                          ; preds = %24
  %26 = tail call i32 @Py_PACK_FULL_VERSION(i32 noundef %9, i32 noundef -1, i32 noundef 0, i32 noundef 0, i32 noundef 0) #3
  %27 = tail call i32 @Py_PACK_VERSION(i32 noundef %9, i32 noundef -1) #3
  %28 = icmp eq i32 %26, %27
  br i1 %28, label %_testlimitedcapi_pack_version_impl.exit14, label %29

29:                                               ; preds = %.split9
  tail call void @__assert_fail(ptr noundef nonnull @.str.4, ptr noundef nonnull @.str.5, i32 noundef 60, ptr noundef nonnull @__PRETTY_FUNCTION__._testlimitedcapi_pack_version_impl) #4
  unreachable

_testlimitedcapi_pack_version_impl.exit14:        ; preds = %.split9
  %30 = zext i32 %26 to i64
  %31 = tail call ptr @PyLong_FromUnsignedLong(i64 noundef %30) #3
  br label %32

32:                                               ; preds = %_testlimitedcapi_pack_version_impl.exit, %_testlimitedcapi_pack_version_impl.exit14, %24, %11, %4
  %.0 = phi ptr [ null, %4 ], [ null, %11 ], [ null, %24 ], [ %23, %_testlimitedcapi_pack_version_impl.exit ], [ %31, %_testlimitedcapi_pack_version_impl.exit14 ]
  ret ptr %.0
}